target datalayout = "e-m:e-p270:32:32-p271:32:32-p272:64:64-i64:64-i128:128-f80:128-n8:16:32:64-S128"
target triple = "x86_64-pc-linux-gnu"

%"class.sat::watched" = type <{ i64, i32, [4 x i8] }>
%class.vector = type { ptr }

; Function Attrs: mustprogress nounwind uwtable
define linkonce_odr hidden noundef i32 @_ZNK3sat7watched8get_kindEv(ptr noundef nonnull align 8 dereferenceable(12) %0) #6 comdat align 2 {
  %2 = alloca ptr, align 8
  store ptr %0, ptr %2, align 8, !tbaa !10
  %3 = load ptr, ptr %2, align 8
  %4 = getelementptr inbounds nuw %"class.sat::watched", ptr %3, i32 0, i32 1
  %5 = load i32, ptr %4, align 8, !tbaa !43
  %6 = and i32 %5, 3
  ret i32 %6
}

; Function Attrs: mustprogress nounwind uwtable
define linkonce_odr hidden noundef i32 @_ZNK6vectorIN3sat7watchedELb1EjE4sizeEv(ptr noundef nonnull align 8 dereferenceable(8) %0) #6 comdat align 2 {
  %2 = alloca i32, align 4
  %3 = alloca ptr, align 8
  store ptr %0, ptr %3, align 8, !tbaa !3
  %4 = load ptr, ptr %3, align 8
  %5 = getelementptr inbounds nuw %class.vector, ptr %4, i32 0, i32 0
  %6 = load ptr, ptr %5, align 8, !tbaa !18
  %7 = icmp eq ptr %6, null
  br i1 %7, label %8, label %9

8:                                                ; preds = %1
  store i32 0, ptr %2, align 4
  br label %14

9:                                                ; preds = %1
  %10 = getelementptr inbounds nuw %class.vector, ptr %4, i32 0, i32 0
  %11 = load ptr, ptr %10, align 8, !tbaa !18
  %12 = getelementptr inbounds i32, ptr %11, i64 -1
  %13 = load i32, ptr %12, align 4, !tbaa !13
  store i32 %13, ptr %2, align 4
  br label %14

14:                                               ; preds = %9, %8
  %15 = load i32, ptr %2, align 4
  ret i32 %15
}

; Function Attrs: mustprogress uwtable
define linkonce_odr hidden void @_ZN6vectorIN3sat7watchedELb1EjE7set_endEPS1_(ptr noundef nonnull align 8 dereferenceable(8) %0, ptr noundef %1) #4 comdat align 2 {
  %3 = alloca ptr, align 8
  %4 = alloca ptr, align 8
  %5 = alloca i32, align 4
  %6 = alloca ptr, align 8
  store ptr %0, ptr %3, align 8, !tbaa !3
  store ptr %1, ptr %4, align 8, !tbaa !10
  %7 = load ptr, ptr %3, align 8
  %8 = getelementptr inbounds nuw %class.vector, ptr %7, i32 0, i32 0
  %9 = load ptr, ptr %8, align 8, !tbaa !18
  %10 = icmp ne ptr %9, null
  br i1 %10, label %11, label %34

11:                                               ; preds = %2
  call void @llvm.lifetime.start.p0(i64 4, ptr %5) #3
  %12 = load ptr, ptr %4, align 8, !tbaa !10
  %13 = getelementptr inbounds nuw %class.vector, ptr %7, i32 0, i32 0
  %14 = load ptr, ptr %13, align 8, !tbaa !18
  %15 = ptrtoint ptr %12 to i64
  %16 = ptrtoint ptr %14 to i64
  %17 = sub i64 %15, %16
  %18 = sdiv exact i64 %17, 16
  %19 = trunc i64 %18 to i32
  store i32 %19, ptr %5, align 4, !tbaa !13
  call void @llvm.lifetime.start.p0(i64 8, ptr %6) #3
  %20 = call noundef ptr @_ZN6vectorIN3sat7watchedELb1EjE3endEv(ptr noundef nonnull align 8 dereferenceable(8) %7)
  store ptr %20, ptr %6, align 8, !tbaa !10
  br label %21

21:                                               ; preds = %26, %11
  %22 = load ptr, ptr %4, align 8, !tbaa !10
  %23 = load ptr, ptr %6, align 8, !tbaa !10
  %24 = icmp ne ptr %22, %23
  br i1 %24, label %25, label %29

25:                                               ; preds = %21
  br label %26

26:                                               ; preds = %25
  %27 = load ptr, ptr %4, align 8, !tbaa !10
  %28 = getelementptr inbounds nuw %"class.sat::watched", ptr %27, i32 1
  store ptr %28, ptr %4, align 8, !tbaa !10
  br label %21, !llvm.loop !22

29:                                               ; preds = %21
  call void @llvm.lifetime.end.p0(i64 8, ptr %6) #3
  %30 = load i32, ptr %5, align 4, !tbaa !13
  %31 = getelementptr inbounds nuw %class.vector, ptr %7, i32 0, i32 0
  %32 = load ptr, ptr %31, align 8, !tbaa !18
  %33 = getelementptr inbounds i32, ptr %32, i64 -1
  store i32 %30, ptr %33, align 4, !tbaa !13
  call void @llvm.lifetime.end.p0(i64 4, ptr %5) #3
  br label %35

34:                                               ; preds = %2
  br label %35

35:                                               ; preds = %34, %29
  ret void
}

; Function Attrs: mustprogress nounwind uwtable
define linkonce_odr hidden noundef i64 @_ZNK3sat7watched17get_clause_offsetEv(ptr noundef nonnull align 8 dereferenceable(12) %0) #6 comdat align 2 {
  %2 = alloca ptr, align 8
  store ptr %0, ptr %2, align 8, !tbaa !10
  %3 = load ptr, ptr %2, align 8
  %4 = getelementptr inbounds nuw %"class.sat::watched", ptr %3, i32 0, i32 0
  %5 = load i64, ptr %4, align 8, !tbaa !20
  ret i64 %5
}

; Function Attrs: mustprogress uwtable
define linkonce_odr hidden noundef zeroext i1 @_ZNK3sat7watched9is_clauseEv(ptr noundef nonnull align 8 dereferenceable(12) %0) #4 comdat align 2 {
  %2 = alloca ptr, align 8
  store ptr %0, ptr %2, align 8, !tbaa !10
  %3 = load ptr, ptr %2, align 8
  %4 = call noundef i32 @_ZNK3sat7watched8get_kindEv(ptr noundef nonnull align 8 dereferenceable(12) %3)
  %5 = icmp eq i32 %4, 1
  ret i1 %5
}

; Function Attrs: mustprogress uwtable
define linkonce_odr hidden noundef ptr @_ZN6vectorIN3sat7watchedELb1EjE3endEv(ptr noundef nonnull align 8 dereferenceable(8) %0) #4 comdat align 2 {
  %2 = alloca ptr, align 8
  store ptr %0, ptr %2, align 8, !tbaa !3
  %3 = load ptr, ptr %2, align 8
  %4 = getelementptr inbounds nuw %class.vector, ptr %3, i32 0, i32 0
  %5 = load ptr, ptr %4, align 8, !tbaa !18
  %6 = call noundef i32 @_ZNK6vectorIN3sat7watchedELb1EjE4sizeEv(ptr noundef nonnull align 8 dereferenceable(8) %3)
  %7 = zext i32 %6 to i64
  %8 = getelementptr inbounds nuw %"class.sat::watched", ptr %5, i64 %7
  ret ptr %8
}

; Function Attrs: mustprogress nounwind uwtable
define linkonce_odr hidden noundef ptr @_ZN6vectorIN3sat7watchedELb1EjE5beginEv(ptr noundef nonnull align 8 dereferenceable(8) %0) #6 comdat align 2 {
  %2 = alloca ptr, align 8
  store ptr %0, ptr %2, align 8, !tbaa !3
  %3 = load ptr, ptr %2, align 8
  %4 = getelementptr inbounds nuw %class.vector, ptr %3, i32 0, i32 0
  %5 = load ptr, ptr %4, align 8, !tbaa !18
  ret ptr %5
}

; Function Attrs: mustprogress uwtable
define hidden noundef zeroext i1 @_ZN3sat18erase_clause_watchER6vectorINS_7watchedELb1EjEm(ptr noundef nonnull align 8 dereferenceable(8) %0, i64 noundef %1) #4 {
  %3 = alloca i1, align 1
  %4 = alloca ptr, align 8
  %5 = alloca i64, align 8
  %6 = alloca ptr, align 8
  %7 = alloca ptr, align 8
  %8 = alloca ptr, align 8
  %9 = alloca i32, align 4
  store ptr %0, ptr %4, align 8, !tbaa !3
  store i64 %1, ptr %5, align 8, !tbaa !8
  call void @llvm.lifetime.start.p0(i64 8, ptr %6) #3
  %10 = load ptr, ptr %4, align 8, !tbaa !3
  %11 = call noundef ptr @_ZN6vectorIN3sat7watchedELb1EjE5beginEv(ptr noundef nonnull align 8 dereferenceable(8) %10)
  store ptr %11, ptr %6, align 8, !tbaa !10
  call void @llvm.lifetime.start.p0(i64 8, ptr %7) #3
  %12 = load ptr, ptr %4, align 8, !tbaa !3
  %13 = call noundef ptr @_ZN6vectorIN3sat7watchedELb1EjE3endEv(ptr noundef nonnull align 8 dereferenceable(8) %12)
  store ptr %13, ptr %7, align 8, !tbaa !10
  br label %14

14:                                               ; preds = %46, %2
  %15 = load ptr, ptr %6, align 8, !tbaa !10
  %16 = load ptr, ptr %7, align 8, !tbaa !10
  %17 = icmp ne ptr %15, %16
  br i1 %17, label %18, label %49

18:                                               ; preds = %14
  %19 = load ptr, ptr %6, align 8, !tbaa !10
  %20 = call noundef zeroext i1 @_ZNK3sat7watched9is_clauseEv(ptr noundef nonnull align 8 dereferenceable(12) %19)
  br i1 %20, label %21, label %45

21:                                               ; preds = %18
  %22 = load ptr, ptr %6, align 8, !tbaa !10
  %23 = call noundef i64 @_ZNK3sat7watched17get_clause_offsetEv(ptr noundef nonnull align 8 dereferenceable(12) %22)
  %24 = load i64, ptr %5, align 8, !tbaa !8
  %25 = icmp eq i64 %23, %24
  br i1 %25, label %26, label %45

26:                                               ; preds = %21
  call void @llvm.lifetime.start.p0(i64 8, ptr %8) #3
  %27 = load ptr, ptr %6, align 8, !tbaa !10
  store ptr %27, ptr %8, align 8, !tbaa !10
  %28 = load ptr, ptr %6, align 8, !tbaa !10
  %29 = getelementptr inbounds nuw %"class.sat::watched", ptr %28, i32 1
  store ptr %29, ptr %6, align 8, !tbaa !10
  br label %30

30:                                               ; preds = %37, %26
  %31 = load ptr, ptr %6, align 8, !tbaa !10
  %32 = load ptr, ptr %7, align 8, !tbaa !10
  %33 = icmp ne ptr %31, %32
  br i1 %33, label %34, label %42

34:                                               ; preds = %30
  %35 = load ptr, ptr %6, align 8, !tbaa !10
  %36 = load ptr, ptr %8, align 8, !tbaa !10
  call void @llvm.memcpy.p0.p0.i64(ptr align 8 %36, ptr align 8 %35, i64 12, i1 false), !tbaa.struct !12
  br label %37

37:                                               ; preds = %34
  %38 = load ptr, ptr %6, align 8, !tbaa !10
  %39 = getelementptr inbounds nuw %"class.sat::watched", ptr %38, i32 1
  store ptr %39, ptr %6, align 8, !tbaa !10
  %40 = load ptr, ptr %8, align 8, !tbaa !10
  %41 = getelementptr inbounds nuw %"class.sat::watched", ptr %40, i32 1
  store ptr %41, ptr %8, align 8, !tbaa !10
  br label %30, !llvm.loop !15

42:                                               ; preds = %30
  %43 = load ptr, ptr %4, align 8, !tbaa !3
  %44 = load ptr, ptr %8, align 8, !tbaa !10
  call void @_ZN6vectorIN3sat7watchedELb1EjE7set_endEPS1_(ptr noundef nonnull align 8 dereferenceable(8) %43, ptr noundef %44)
  store i1 true, ptr %3, align 1
  store i32 1, ptr %9, align 4
  call void @llvm.lifetime.end.p0(i64 8, ptr %8) #3
  br label %50

45:                                               ; preds = %21, %18
  br label %46

46:                                               ; preds = %45
  %47 = load ptr, ptr %6, align 8, !tbaa !10
  %48 = getelementptr inbounds nuw %"class.sat::watched", ptr %47, i32 1
  store ptr %48, ptr %6, align 8, !tbaa !10
  br label %14, !llvm.loop !17

49:                                               ; preds = %14
  store i1 false, ptr %3, align 1
  store i32 1, ptr %9, align 4
  br label %50

50:                                               ; preds = %49, %42
  call void @llvm.lifetime.end.p0(i64 8, ptr %7) #3
  call void @llvm.lifetime.end.p0(i64 8, ptr %6) #3
  %51 = load i1, ptr %3, align 1
  ret i1 %51
}