; Function Attrs: mustprogress nofree norecurse nosync nounwind memory(readwrite, inaccessiblemem: none) uwtable
define hidden noundef zeroext i1 @_ZN3sat18erase_clause_watchER6vectorINS_7watchedELb1EjEm(ptr noundef nonnull readonly align 8 captures(none) dereferenceable(8) %0, i64 noundef %1) local_unnamed_addr #3 {
  %3 = load ptr, ptr %0, align 8, !tbaa !3
  %4 = icmp eq ptr %3, null
  br i1 %4, label %_ZN6vectorIN3sat7watchedELb1EjE7set_endEPS1_.exit, label %_ZN6vectorIN3sat7watchedELb1EjE3endEv.exit

_ZN6vectorIN3sat7watchedELb1EjE3endEv.exit:       ; preds = %2
  %5 = getelementptr inbounds i8, ptr %3, i64 -4
  %6 = load i32, ptr %5, align 4, !tbaa !9
  %7 = zext i32 %6 to i64
  %8 = getelementptr inbounds nuw %"class.sat::watched", ptr %3, i64 %7
  %.not25.not = icmp eq i32 %6, 0
  br i1 %.not25.not, label %_ZN6vectorIN3sat7watchedELb1EjE7set_endEPS1_.exit, label %.lr.ph

.lr.ph:                                           ; preds = %_ZN6vectorIN3sat7watchedELb1EjE3endEv.exit, %24
  %.01926 = phi ptr [ %25, %24 ], [ %3, %_ZN6vectorIN3sat7watchedELb1EjE3endEv.exit ]
  %9 = getelementptr inbounds nuw i8, ptr %.01926, i64 8
  %10 = load i32, ptr %9, align 8, !tbaa !11
  %11 = and i32 %10, 3
  %12 = icmp eq i32 %11, 1
  br i1 %12, label %13, label %24

13:                                               ; preds = %.lr.ph
  %14 = load i64, ptr %.01926, align 8, !tbaa !14
  %15 = icmp eq i64 %14, %1
  br i1 %15, label %.preheader, label %24

.preheader:                                       ; preds = %13
  %.128 = getelementptr inbounds nuw i8, ptr %.01926, i64 16
  %.not2129 = icmp eq ptr %.128, %8
  br i1 %.not2129, label %._crit_edge, label %.lr.ph32

.lr.ph32:                                         ; preds = %.preheader, %.lr.ph32
  %.131 = phi ptr [ %.1, %.lr.ph32 ], [ %.128, %.preheader ]
  %.030 = phi ptr [ %16, %.lr.ph32 ], [ %.01926, %.preheader ]
  tail call void @llvm.memcpy.p0.p0.i64(ptr noundef nonnull align 8 dereferenceable(12) %.030, ptr noundef nonnull align 8 dereferenceable(12) %.131, i64 12, i1 false), !tbaa.struct !15
  %16 = getelementptr inbounds nuw i8, ptr %.030, i64 16
  %.1 = getelementptr inbounds nuw i8, ptr %.131, i64 16
  %.not21 = icmp eq ptr %.1, %8
  br i1 %.not21, label %._crit_edge.loopexit, label %.lr.ph32, !llvm.loop !17

._crit_edge.loopexit:                             ; preds = %.lr.ph32
  %.pre = load ptr, ptr %0, align 8, !tbaa !3
  br label %._crit_edge

._crit_edge:                                      ; preds = %._crit_edge.loopexit, %.preheader
  %17 = phi ptr [ %3, %.preheader ], [ %.pre, %._crit_edge.loopexit ]
  %.0.lcssa = phi ptr [ %.01926, %.preheader ], [ %16, %._crit_edge.loopexit ]
  %.not.i = icmp eq ptr %17, null
  br i1 %.not.i, label %_ZN6vectorIN3sat7watchedELb1EjE7set_endEPS1_.exit, label %_ZN6vectorIN3sat7watchedELb1EjE3endEv.exit.i

_ZN6vectorIN3sat7watchedELb1EjE3endEv.exit.i:     ; preds = %._crit_edge
  %18 = ptrtoint ptr %.0.lcssa to i64
  %19 = ptrtoint ptr %17 to i64
  %20 = sub i64 %18, %19
  %21 = lshr exact i64 %20, 4
  %22 = trunc i64 %21 to i32
  %23 = getelementptr inbounds i8, ptr %17, i64 -4
  store i32 %22, ptr %23, align 4, !tbaa !9
  br label %_ZN6vectorIN3sat7watchedELb1EjE7set_endEPS1_.exit

24:                                               ; preds = %.lr.ph, %13
  %25 = getelementptr inbounds nuw i8, ptr %.01926, i64 16
  %.not.not = icmp eq ptr %25, %8
  br i1 %.not.not, label %_ZN6vectorIN3sat7watchedELb1EjE7set_endEPS1_.exit, label %.lr.ph, !llvm.loop !19

_ZN6vectorIN3sat7watchedELb1EjE7set_endEPS1_.exit: ; preds = %24, %2, %_ZN6vectorIN3sat7watchedELb1EjE3endEv.exit, %_ZN6vectorIN3sat7watchedELb1EjE3endEv.exit.i, %._crit_edge
  %.not23 = phi i1 [ true, %_ZN6vectorIN3sat7watchedELb1EjE3endEv.exit.i ], [ true, %._crit_edge ], [ false, %_ZN6vectorIN3sat7watchedELb1EjE3endEv.exit ], [ false, %2 ], [ false, %24 ]
  ret i1 %.not23
}